target datalayout = "e-m:e-p270:32:32-p271:32:32-p272:64:64-i64:64-i128:128-f80:128-n8:16:32:64-S128"
target triple = "x86_64-pc-linux-gnu"

; Function Attrs: mustprogress uwtable
define hidden noundef double @_ZN6NFALUT7myAtan2Edd(double noundef %0, double noundef %1) #4 align 2 {
  %3 = alloca double, align 8
  %4 = alloca double, align 8
  %5 = alloca double, align 8
  store double %0, ptr %3, align 8, !tbaa !10
  store double %1, ptr %4, align 8, !tbaa !10
  call void @llvm.lifetime.start.p0(i64 8, ptr %5) #3
  %6 = load double, ptr %3, align 8, !tbaa !10
  %7 = fptrunc double %6 to float
  %8 = load double, ptr %4, align 8, !tbaa !10
  %9 = fptrunc double %8 to float
  %10 = call noundef float @_ZN2cv9fastAtan2Eff(float noundef %7, float noundef %9)
  %11 = fpext float %10 to double
  store double %11, ptr %5, align 8, !tbaa !10
  %12 = load double, ptr %5, align 8, !tbaa !10
  %13 = fcmp ogt double %12, 1.800000e+02
  br i1 %13, label %14, label %17

14:                                               ; preds = %2
  %15 = load double, ptr %5, align 8, !tbaa !10
  %16 = fsub double %15, 1.800000e+02
  store double %16, ptr %5, align 8, !tbaa !10
  br label %17

17:                                               ; preds = %14, %2
  %18 = load double, ptr %5, align 8, !tbaa !10
  %19 = fdiv double %18, 1.800000e+02
  %20 = fmul double %19, 0x400921FB54442D18
  call void @llvm.lifetime.end.p0(i64 8, ptr %5) #3
  ret double %20
}