; Function Attrs: mustprogress uwtable
define hidden noundef double @_ZN6NFALUT7myAtan2Edd(double noundef %0, double noundef %1) local_unnamed_addr #3 align 2 {
  %3 = fptrunc double %0 to float
  %4 = fptrunc double %1 to float
  %5 = tail call noundef float @_ZN2cv9fastAtan2Eff(float noundef %3, float noundef %4)
  %6 = fpext float %5 to double
  %7 = fcmp ogt float %5, 1.800000e+02
  %8 = fadd double %6, -1.800000e+02
  %.0 = select i1 %7, double %8, double %6
  %9 = fdiv double %.0, 1.800000e+02
  %10 = fmul double %9, 0x400921FB54442D18
  ret double %10
}